target datalayout = "e-m:e-p270:32:32-p271:32:32-p272:64:64-i64:64-i128:128-f80:128-n8:16:32:64-S128"
target triple = "x86_64-pc-linux-gnu"

@ett_nas_5gs_cmn_service_level_aa_cont_param = internal global i32 0, align 4
@.str.54 = private unnamed_addr constant [30 x i8] c"Service-level-AA parameter %d\00", align 1
@hf_nas_5gs_cmn_service_level_aa_param_type = internal global i32 0, align 4
@hf_nas_5gs_cmn_service_level_aa_param_len = internal global i32 0, align 4
@hf_nas_5gs_cmn_service_level_aa_param_device_id = internal global i32 0, align 4
@hf_nas_5gs_cmn_service_level_aa_param_addr_type = internal global i32 0, align 4
@hf_nas_5gs_cmn_service_level_aa_param_addr_ipv4 = internal global i32 0, align 4
@hf_nas_5gs_cmn_service_level_aa_param_addr_ipv6 = internal global i32 0, align 4
@hf_nas_5gs_cmn_service_level_aa_param_addr_fqdn = internal global i32 0, align 4
@hf_nas_5gs_cmn_service_level_aa_param_payload_type = internal global i32 0, align 4
@hf_nas_5gs_cmn_service_level_aa_param_payload = internal global i32 0, align 4
@de_nas_5gs_cmn_service_level_aa_cont.flags.55 = internal constant [5 x ptr] [ptr @hf_nas_5gs_spare_b3, ptr @hf_nas_5gs_spare_b2, ptr @hf_nas_5gs_spare_b1, ptr @hf_nas_5gs_cmn_service_level_aa_param_pending_ind_slapi, ptr null], align 16
@de_nas_5gs_cmn_service_level_aa_cont.flags.56 = internal constant [5 x ptr] [ptr @hf_nas_5gs_spare_b3, ptr @hf_nas_5gs_spare_b2, ptr @hf_nas_5gs_spare_b1, ptr @hf_nas_5gs_cmn_service_level_aa_param_service_status_ind_uas, ptr null], align 16
@hf_nas_5gs_cmn_service_level_aa_param_unknown = internal global i32 0, align 4

; Function Attrs: null_pointer_is_valid sspstrong uwtable
define hidden zeroext i16 @de_nas_5gs_cmn_service_level_aa_cont(ptr noundef %0, ptr noundef %1, ptr noundef %2, i32 noundef %3, i32 noundef %4, ptr noundef %5, i32 noundef %6) #0 {
  %8 = alloca ptr, align 8
  %9 = alloca ptr, align 8
  %10 = alloca ptr, align 8
  %11 = alloca i32, align 4
  %12 = alloca i32, align 4
  %13 = alloca ptr, align 8
  %14 = alloca i32, align 4
  %15 = alloca i32, align 4
  %16 = alloca i32, align 4
  %17 = alloca ptr, align 8
  %18 = alloca ptr, align 8
  %19 = alloca i32, align 4
  %20 = alloca i32, align 4
  %21 = alloca i32, align 4
  %22 = alloca i32, align 4
  store ptr %0, ptr %8, align 8
  store ptr %1, ptr %9, align 8
  store ptr %2, ptr %10, align 8
  store i32 %3, ptr %11, align 4
  store i32 %4, ptr %12, align 4
  store ptr %5, ptr %13, align 8
  store i32 %6, ptr %14, align 4
  call void @llvm.lifetime.start.p0(i64 4, ptr %15) #11
  call void @llvm.lifetime.start.p0(i64 4, ptr %16) #11
  %23 = load i32, ptr %11, align 4
  store i32 %23, ptr %15, align 4
  store i32 0, ptr %16, align 4
  br label %24

24:                                               ; preds = %171, %7
  %25 = load i32, ptr %15, align 4
  %26 = load i32, ptr %11, align 4
  %27 = sub i32 %25, %26
  %28 = load i32, ptr %12, align 4
  %29 = icmp ult i32 %27, %28
  br i1 %29, label %30, label %177

30:                                               ; preds = %24
  call void @llvm.lifetime.start.p0(i64 8, ptr %17) #11
  call void @llvm.lifetime.start.p0(i64 8, ptr %18) #11
  call void @llvm.lifetime.start.p0(i64 4, ptr %19) #11
  call void @llvm.lifetime.start.p0(i64 4, ptr %20) #11
  call void @llvm.lifetime.start.p0(i64 4, ptr %21) #11
  %31 = load i32, ptr %15, align 4
  store i32 %31, ptr %21, align 4
  %32 = load ptr, ptr %9, align 8
  %33 = load ptr, ptr %8, align 8
  %34 = load i32, ptr %15, align 4
  %35 = load i32, ptr @ett_nas_5gs_cmn_service_level_aa_cont_param, align 4
  %36 = load i32, ptr %16, align 4
  %37 = add i32 %36, 1
  %38 = call ptr (ptr, ptr, i32, i32, i32, ptr, ptr, ...) @proto_tree_add_subtree_format(ptr noundef %32, ptr noundef %33, i32 noundef %34, i32 noundef -1, i32 noundef %35, ptr noundef %17, ptr noundef @.str.54, i32 noundef %37)
  store ptr %38, ptr %18, align 8
  %39 = load ptr, ptr %8, align 8
  %40 = load i32, ptr %15, align 4
  %41 = call zeroext i8 @tvb_get_uint8(ptr noundef %39, i32 noundef %40)
  %42 = zext i8 %41 to i32
  store i32 %42, ptr %19, align 4
  %43 = load i32, ptr %19, align 4
  %44 = and i32 %43, 128
  %45 = icmp eq i32 %44, 128
  br i1 %45, label %46, label %49

46:                                               ; preds = %30
  store i32 0, ptr %20, align 4
  %47 = load i32, ptr %19, align 4
  %48 = and i32 %47, 240
  store i32 %48, ptr %19, align 4
  br label %49

49:                                               ; preds = %46, %30
  %50 = load ptr, ptr %18, align 8
  %51 = load i32, ptr @hf_nas_5gs_cmn_service_level_aa_param_type, align 4
  %52 = load ptr, ptr %8, align 8
  %53 = load i32, ptr %15, align 4
  %54 = load i32, ptr %19, align 4
  %55 = call ptr @proto_tree_add_uint(ptr noundef %50, i32 noundef %51, ptr noundef %52, i32 noundef %53, i32 noundef 1, i32 noundef %54)
  %56 = load i32, ptr %15, align 4
  %57 = add i32 %56, 1
  store i32 %57, ptr %15, align 4
  %58 = load i32, ptr %19, align 4
  %59 = and i32 %58, 240
  %60 = icmp eq i32 %59, 112
  br i1 %60, label %61, label %69

61:                                               ; preds = %49
  %62 = load ptr, ptr %18, align 8
  %63 = load i32, ptr @hf_nas_5gs_cmn_service_level_aa_param_len, align 4
  %64 = load ptr, ptr %8, align 8
  %65 = load i32, ptr %15, align 4
  %66 = call ptr @proto_tree_add_item_ret_uint(ptr noundef %62, i32 noundef %63, ptr noundef %64, i32 noundef %65, i32 noundef 2, i32 noundef 0, ptr noundef %20)
  %67 = load i32, ptr %15, align 4
  %68 = add i32 %67, 2
  store i32 %68, ptr %15, align 4
  br label %77

69:                                               ; preds = %49
  %70 = load ptr, ptr %18, align 8
  %71 = load i32, ptr @hf_nas_5gs_cmn_service_level_aa_param_len, align 4
  %72 = load ptr, ptr %8, align 8
  %73 = load i32, ptr %15, align 4
  %74 = call ptr @proto_tree_add_item_ret_uint(ptr noundef %70, i32 noundef %71, ptr noundef %72, i32 noundef %73, i32 noundef 1, i32 noundef 0, ptr noundef %20)
  %75 = load i32, ptr %15, align 4
  %76 = add i32 %75, 1
  store i32 %76, ptr %15, align 4
  br label %77

77:                                               ; preds = %69, %61
  %78 = load ptr, ptr %17, align 8
  %79 = load i32, ptr %15, align 4
  %80 = load i32, ptr %20, align 4
  %81 = add i32 %79, %80
  %82 = load i32, ptr %21, align 4
  %83 = sub i32 %81, %82
  call void @proto_item_set_len(ptr noundef %78, i32 noundef %83)
  %84 = load i32, ptr %19, align 4
  switch i32 %84, label %164 [
    i32 16, label %85
    i32 32, label %92
    i32 48, label %137
    i32 64, label %141
    i32 112, label %147
    i32 160, label %154
    i32 80, label %159
  ]

85:                                               ; preds = %77
  %86 = load ptr, ptr %18, align 8
  %87 = load i32, ptr @hf_nas_5gs_cmn_service_level_aa_param_device_id, align 4
  %88 = load ptr, ptr %8, align 8
  %89 = load i32, ptr %15, align 4
  %90 = load i32, ptr %20, align 4
  %91 = call ptr @proto_tree_add_item(ptr noundef %86, i32 noundef %87, ptr noundef %88, i32 noundef %89, i32 noundef %90, i32 noundef 2)
  br label %171

92:                                               ; preds = %77
  call void @llvm.lifetime.start.p0(i64 4, ptr %22) #11
  %93 = load ptr, ptr %18, align 8
  %94 = load i32, ptr @hf_nas_5gs_cmn_service_level_aa_param_addr_type, align 4
  %95 = load ptr, ptr %8, align 8
  %96 = load i32, ptr %15, align 4
  %97 = call ptr @proto_tree_add_item_ret_uint(ptr noundef %93, i32 noundef %94, ptr noundef %95, i32 noundef %96, i32 noundef 1, i32 noundef 0, ptr noundef %22)
  %98 = load i32, ptr %22, align 4
  switch i32 %98, label %135 [
    i32 1, label %99
    i32 2, label %106
    i32 3, label %113
    i32 4, label %126
  ]

99:                                               ; preds = %92
  %100 = load ptr, ptr %18, align 8
  %101 = load i32, ptr @hf_nas_5gs_cmn_service_level_aa_param_addr_ipv4, align 4
  %102 = load ptr, ptr %8, align 8
  %103 = load i32, ptr %15, align 4
  %104 = add i32 %103, 1
  %105 = call ptr @proto_tree_add_item(ptr noundef %100, i32 noundef %101, ptr noundef %102, i32 noundef %104, i32 noundef 4, i32 noundef 0)
  br label %136

106:                                              ; preds = %92
  %107 = load ptr, ptr %18, align 8
  %108 = load i32, ptr @hf_nas_5gs_cmn_service_level_aa_param_addr_ipv6, align 4
  %109 = load ptr, ptr %8, align 8
  %110 = load i32, ptr %15, align 4
  %111 = add i32 %110, 1
  %112 = call ptr @proto_tree_add_item(ptr noundef %107, i32 noundef %108, ptr noundef %109, i32 noundef %111, i32 noundef 16, i32 noundef 0)
  br label %136

113:                                              ; preds = %92
  %114 = load ptr, ptr %18, align 8
  %115 = load i32, ptr @hf_nas_5gs_cmn_service_level_aa_param_addr_ipv4, align 4
  %116 = load ptr, ptr %8, align 8
  %117 = load i32, ptr %15, align 4
  %118 = add i32 %117, 1
  %119 = call ptr @proto_tree_add_item(ptr noundef %114, i32 noundef %115, ptr noundef %116, i32 noundef %118, i32 noundef 4, i32 noundef 0)
  %120 = load ptr, ptr %18, align 8
  %121 = load i32, ptr @hf_nas_5gs_cmn_service_level_aa_param_addr_ipv6, align 4
  %122 = load ptr, ptr %8, align 8
  %123 = load i32, ptr %15, align 4
  %124 = add i32 %123, 5
  %125 = call ptr @proto_tree_add_item(ptr noundef %120, i32 noundef %121, ptr noundef %122, i32 noundef %124, i32 noundef 16, i32 noundef 0)
  br label %136

126:                                              ; preds = %92
  %127 = load ptr, ptr %18, align 8
  %128 = load i32, ptr @hf_nas_5gs_cmn_service_level_aa_param_addr_fqdn, align 4
  %129 = load ptr, ptr %8, align 8
  %130 = load i32, ptr %15, align 4
  %131 = add i32 %130, 1
  %132 = load i32, ptr %20, align 4
  %133 = sub i32 %132, 1
  %134 = call ptr @proto_tree_add_item(ptr noundef %127, i32 noundef %128, ptr noundef %129, i32 noundef %131, i32 noundef %133, i32 noundef 84)
  br label %136

135:                                              ; preds = %92
  br label %136

136:                                              ; preds = %135, %126, %113, %106, %99
  call void @llvm.lifetime.end.p0(i64 4, ptr %22) #11
  br label %171

137:                                              ; preds = %77
  %138 = load ptr, ptr %18, align 8
  %139 = load ptr, ptr %8, align 8
  %140 = load i32, ptr %15, align 4
  call void @proto_tree_add_bitmask_list(ptr noundef %138, ptr noundef %139, i32 noundef %140, i32 noundef 1, ptr noundef @de_nas_5gs_cmn_service_level_aa_cont.flags, i32 noundef 0)
  br label %171

141:                                              ; preds = %77
  %142 = load ptr, ptr %18, align 8
  %143 = load i32, ptr @hf_nas_5gs_cmn_service_level_aa_param_payload_type, align 4
  %144 = load ptr, ptr %8, align 8
  %145 = load i32, ptr %15, align 4
  %146 = call ptr @proto_tree_add_item(ptr noundef %142, i32 noundef %143, ptr noundef %144, i32 noundef %145, i32 noundef 1, i32 noundef 0)
  br label %171

147:                                              ; preds = %77
  %148 = load ptr, ptr %18, align 8
  %149 = load i32, ptr @hf_nas_5gs_cmn_service_level_aa_param_payload, align 4
  %150 = load ptr, ptr %8, align 8
  %151 = load i32, ptr %15, align 4
  %152 = load i32, ptr %20, align 4
  %153 = call ptr @proto_tree_add_item(ptr noundef %148, i32 noundef %149, ptr noundef %150, i32 noundef %151, i32 noundef %152, i32 noundef 0)
  br label %171

154:                                              ; preds = %77
  %155 = load ptr, ptr %18, align 8
  %156 = load ptr, ptr %8, align 8
  %157 = load i32, ptr %15, align 4
  %158 = sub i32 %157, 1
  call void @proto_tree_add_bitmask_list(ptr noundef %155, ptr noundef %156, i32 noundef %158, i32 noundef 1, ptr noundef @de_nas_5gs_cmn_service_level_aa_cont.flags.55, i32 noundef 0)
  br label %171

159:                                              ; preds = %77
  %160 = load ptr, ptr %18, align 8
  %161 = load ptr, ptr %8, align 8
  %162 = load i32, ptr %15, align 4
  %163 = sub i32 %162, 1
  call void @proto_tree_add_bitmask_list(ptr noundef %160, ptr noundef %161, i32 noundef %163, i32 noundef 1, ptr noundef @de_nas_5gs_cmn_service_level_aa_cont.flags.56, i32 noundef 0)
  br label %171

164:                                              ; preds = %77
  %165 = load ptr, ptr %18, align 8
  %166 = load i32, ptr @hf_nas_5gs_cmn_service_level_aa_param_unknown, align 4
  %167 = load ptr, ptr %8, align 8
  %168 = load i32, ptr %15, align 4
  %169 = load i32, ptr %20, align 4
  %170 = call ptr @proto_tree_add_item(ptr noundef %165, i32 noundef %166, ptr noundef %167, i32 noundef %168, i32 noundef %169, i32 noundef 0)
  br label %171

171:                                              ; preds = %164, %159, %154, %147, %141, %137, %136, %85
  %172 = load i32, ptr %20, align 4
  %173 = load i32, ptr %15, align 4
  %174 = add i32 %173, %172
  store i32 %174, ptr %15, align 4
  %175 = load i32, ptr %16, align 4
  %176 = add i32 %175, 1
  store i32 %176, ptr %16, align 4
  call void @llvm.lifetime.end.p0(i64 4, ptr %21) #11
  call void @llvm.lifetime.end.p0(i64 4, ptr %20) #11
  call void @llvm.lifetime.end.p0(i64 4, ptr %19) #11
  call void @llvm.lifetime.end.p0(i64 8, ptr %18) #11
  call void @llvm.lifetime.end.p0(i64 8, ptr %17) #11
  br label %24, !llvm.loop !12

177:                                              ; preds = %24
  %178 = load i32, ptr %12, align 4
  %179 = trunc i32 %178 to i16
  call void @llvm.lifetime.end.p0(i64 4, ptr %16) #11
  call void @llvm.lifetime.end.p0(i64 4, ptr %15) #11
  ret i16 %179
}