; Function Attrs: null_pointer_is_valid sspstrong uwtable
define hidden noundef zeroext i16 @de_nas_5gs_cmn_service_level_aa_cont(ptr noundef %0, ptr noundef %1, ptr readnone captures(none) %2, i32 noundef %3, i32 noundef %4, ptr readnone captures(none) %5, i32 %6) #0 {
  %8 = alloca ptr, align 8
  %9 = alloca i32, align 4
  %10 = alloca i32, align 4
  %.not76 = icmp eq i32 %4, 0
  br i1 %.not76, label %._crit_edge, label %.lr.ph

.lr.ph:                                           ; preds = %7, %78
  %.075 = phi i32 [ %80, %78 ], [ %3, %7 ]
  %.07274 = phi i32 [ %12, %78 ], [ 0, %7 ]
  call void @llvm.lifetime.start.p0(i64 8, ptr nonnull %8) #12
  call void @llvm.lifetime.start.p0(i64 4, ptr nonnull %9) #12
  %11 = load i32, ptr @ett_nas_5gs_cmn_service_level_aa_cont_param, align 4
  %12 = add i32 %.07274, 1
  %13 = call ptr (ptr, ptr, i32, i32, i32, ptr, ptr, ...) @proto_tree_add_subtree_format(ptr noundef %1, ptr noundef %0, i32 noundef %.075, i32 noundef -1, i32 noundef %11, ptr noundef nonnull %8, ptr noundef nonnull @.str.54, i32 noundef %12)
  %14 = call zeroext i8 @tvb_get_uint8(ptr noundef %0, i32 noundef %.075)
  %15 = zext i8 %14 to i32
  %.not = icmp sgt i8 %14, -1
  br i1 %.not, label %18, label %16

16:                                               ; preds = %.lr.ph
  store i32 0, ptr %9, align 4
  %17 = and i32 %15, 240
  br label %18

18:                                               ; preds = %16, %.lr.ph
  %.071 = phi i32 [ %17, %16 ], [ %15, %.lr.ph ]
  %19 = load i32, ptr @hf_nas_5gs_cmn_service_level_aa_param_type, align 4
  %20 = call ptr @proto_tree_add_uint(ptr noundef %13, i32 noundef %19, ptr noundef %0, i32 noundef %.075, i32 noundef 1, i32 noundef %.071)
  %21 = add i32 %.075, 1
  %22 = and i32 %.071, 240
  %23 = icmp eq i32 %22, 112
  %24 = load i32, ptr @hf_nas_5gs_cmn_service_level_aa_param_len, align 4
  %. = select i1 %23, i32 2, i32 1
  %.78 = select i1 %23, i32 3, i32 2
  %25 = call ptr @proto_tree_add_item_ret_uint(ptr noundef %13, i32 noundef %24, ptr noundef %0, i32 noundef %21, i32 noundef %., i32 noundef 0, ptr noundef nonnull %9)
  %26 = add i32 %.075, %.78
  %27 = load ptr, ptr %8, align 8
  %28 = load i32, ptr %9, align 4
  %29 = add i32 %.78, %28
  call void @proto_item_set_len(ptr noundef %27, i32 noundef %29)
  %30 = add nsw i32 %.071, -16
  %31 = call i32 @llvm.fshl.i32(i32 %30, i32 %30, i32 28)
  switch i32 %31, label %74 [
    i32 0, label %32
    i32 1, label %36
    i32 2, label %62
    i32 3, label %63
    i32 6, label %66
    i32 9, label %70
    i32 4, label %72
  ]

32:                                               ; preds = %18
  %33 = load i32, ptr @hf_nas_5gs_cmn_service_level_aa_param_device_id, align 4
  %34 = load i32, ptr %9, align 4
  %35 = call ptr @proto_tree_add_item(ptr noundef %13, i32 noundef %33, ptr noundef %0, i32 noundef %26, i32 noundef %34, i32 noundef 2)
  br label %78

36:                                               ; preds = %18
  call void @llvm.lifetime.start.p0(i64 4, ptr nonnull %10) #12
  %37 = load i32, ptr @hf_nas_5gs_cmn_service_level_aa_param_addr_type, align 4
  %38 = call ptr @proto_tree_add_item_ret_uint(ptr noundef %13, i32 noundef %37, ptr noundef %0, i32 noundef %26, i32 noundef 1, i32 noundef 0, ptr noundef nonnull %10)
  %39 = load i32, ptr %10, align 4
  switch i32 %39, label %61 [
    i32 1, label %40
    i32 2, label %44
    i32 3, label %48
    i32 4, label %55
  ]

40:                                               ; preds = %36
  %41 = load i32, ptr @hf_nas_5gs_cmn_service_level_aa_param_addr_ipv4, align 4
  %42 = add i32 %26, 1
  %43 = call ptr @proto_tree_add_item(ptr noundef %13, i32 noundef %41, ptr noundef %0, i32 noundef %42, i32 noundef 4, i32 noundef 0)
  br label %61

44:                                               ; preds = %36
  %45 = load i32, ptr @hf_nas_5gs_cmn_service_level_aa_param_addr_ipv6, align 4
  %46 = add i32 %26, 1
  %47 = call ptr @proto_tree_add_item(ptr noundef %13, i32 noundef %45, ptr noundef %0, i32 noundef %46, i32 noundef 16, i32 noundef 0)
  br label %61

48:                                               ; preds = %36
  %49 = load i32, ptr @hf_nas_5gs_cmn_service_level_aa_param_addr_ipv4, align 4
  %50 = add i32 %26, 1
  %51 = call ptr @proto_tree_add_item(ptr noundef %13, i32 noundef %49, ptr noundef %0, i32 noundef %50, i32 noundef 4, i32 noundef 0)
  %52 = load i32, ptr @hf_nas_5gs_cmn_service_level_aa_param_addr_ipv6, align 4
  %53 = add i32 %26, 5
  %54 = call ptr @proto_tree_add_item(ptr noundef %13, i32 noundef %52, ptr noundef %0, i32 noundef %53, i32 noundef 16, i32 noundef 0)
  br label %61

55:                                               ; preds = %36
  %56 = load i32, ptr @hf_nas_5gs_cmn_service_level_aa_param_addr_fqdn, align 4
  %57 = add i32 %26, 1
  %58 = load i32, ptr %9, align 4
  %59 = add i32 %58, -1
  %60 = call ptr @proto_tree_add_item(ptr noundef %13, i32 noundef %56, ptr noundef %0, i32 noundef %57, i32 noundef %59, i32 noundef 84)
  br label %61

61:                                               ; preds = %36, %55, %48, %44, %40
  call void @llvm.lifetime.end.p0(i64 4, ptr nonnull %10) #12
  br label %78

62:                                               ; preds = %18
  call void @proto_tree_add_bitmask_list(ptr noundef %13, ptr noundef %0, i32 noundef %26, i32 noundef 1, ptr noundef nonnull @de_nas_5gs_cmn_service_level_aa_cont.flags, i32 noundef 0)
  br label %78

63:                                               ; preds = %18
  %64 = load i32, ptr @hf_nas_5gs_cmn_service_level_aa_param_payload_type, align 4
  %65 = call ptr @proto_tree_add_item(ptr noundef %13, i32 noundef %64, ptr noundef %0, i32 noundef %26, i32 noundef 1, i32 noundef 0)
  br label %78

66:                                               ; preds = %18
  %67 = load i32, ptr @hf_nas_5gs_cmn_service_level_aa_param_payload, align 4
  %68 = load i32, ptr %9, align 4
  %69 = call ptr @proto_tree_add_item(ptr noundef %13, i32 noundef %67, ptr noundef %0, i32 noundef %26, i32 noundef %68, i32 noundef 0)
  br label %78

70:                                               ; preds = %18
  %71 = add i32 %26, -1
  call void @proto_tree_add_bitmask_list(ptr noundef %13, ptr noundef %0, i32 noundef %71, i32 noundef 1, ptr noundef nonnull @de_nas_5gs_cmn_service_level_aa_cont.flags.55, i32 noundef 0)
  br label %78

72:                                               ; preds = %18
  %73 = add i32 %26, -1
  call void @proto_tree_add_bitmask_list(ptr noundef %13, ptr noundef %0, i32 noundef %73, i32 noundef 1, ptr noundef nonnull @de_nas_5gs_cmn_service_level_aa_cont.flags.56, i32 noundef 0)
  br label %78

74:                                               ; preds = %18
  %75 = load i32, ptr @hf_nas_5gs_cmn_service_level_aa_param_unknown, align 4
  %76 = load i32, ptr %9, align 4
  %77 = call ptr @proto_tree_add_item(ptr noundef %13, i32 noundef %75, ptr noundef %0, i32 noundef %26, i32 noundef %76, i32 noundef 0)
  br label %78

78:                                               ; preds = %74, %72, %70, %66, %63, %62, %61, %32
  %79 = load i32, ptr %9, align 4
  %80 = add i32 %79, %26
  call void @llvm.lifetime.end.p0(i64 4, ptr nonnull %9) #12
  call void @llvm.lifetime.end.p0(i64 8, ptr nonnull %8) #12
  %81 = sub i32 %80, %3
  %82 = icmp ult i32 %81, %4
  br i1 %82, label %.lr.ph, label %._crit_edge, !llvm.loop !12

._crit_edge:                                      ; preds = %78, %7
  %83 = trunc i32 %4 to i16
  ret i16 %83
}